target datalayout = "e-m:e-p270:32:32-p271:32:32-p272:64:64-i64:64-i128:128-f80:128-n8:16:32:64-S128"
target triple = "x86_64-pc-linux-gnu"

%struct.iovec = type { ptr, i64 }

@ruby_current_vm_ptr = external global ptr, align 8
@received_signal = internal global ptr null, align 8
@check_reserved_signal_.msg1 = internal constant [13 x i8] c" received in ", align 1
@check_reserved_signal_.msg2 = internal constant [9 x i8] c" handler\0A", align 1

; Function Attrs: inlinehint nounwind sspstrong memory(argmem: readwrite, inaccessiblemem: readwrite) uwtable
define internal i64 @rbimpl_atomic_size_exchange(ptr noundef nonnull %0, i64 noundef %1) #10 {
  %3 = alloca ptr, align 8
  %4 = alloca i64, align 8
  %5 = alloca i64, align 8
  %6 = alloca i64, align 8
  store ptr %0, ptr %3, align 8, !tbaa !20
  store i64 %1, ptr %4, align 8, !tbaa !22
  %7 = load ptr, ptr %3, align 8, !tbaa !20
  %8 = load i64, ptr %4, align 8, !tbaa !22
  store i64 %8, ptr %5, align 8, !tbaa !22
  %9 = load i64, ptr %5, align 8
  %10 = atomicrmw volatile xchg ptr %7, i64 %9 seq_cst, align 8
  store i64 %10, ptr %6, align 8
  %11 = load i64, ptr %6, align 8, !tbaa !22
  ret i64 %11
}

; Function Attrs: inlinehint nounwind sspstrong uwtable
define internal ptr @rb_current_vm() #5 {
  %1 = load ptr, ptr @ruby_current_vm_ptr, align 8, !tbaa !58
  ret ptr %1
}

; Function Attrs: inlinehint nounwind sspstrong memory(argmem: readwrite, inaccessiblemem: readwrite) uwtable
define internal ptr @rbimpl_atomic_ptr_exchange(ptr noundef nonnull %0, ptr noundef %1) #10 {
  %3 = alloca ptr, align 8
  %4 = alloca ptr, align 8
  %5 = alloca i64, align 8
  %6 = alloca ptr, align 8
  %7 = alloca i64, align 8
  store ptr %0, ptr %3, align 8, !tbaa !61
  store ptr %1, ptr %4, align 8, !tbaa !61
  call void @llvm.lifetime.start.p0(i64 8, ptr %5) #22
  %8 = load ptr, ptr %4, align 8, !tbaa !61
  %9 = ptrtoint ptr %8 to i64
  store i64 %9, ptr %5, align 8, !tbaa !22
  call void @llvm.lifetime.start.p0(i64 8, ptr %6) #22
  %10 = load ptr, ptr %3, align 8, !tbaa !61
  store ptr %10, ptr %6, align 8, !tbaa !20
  call void @llvm.lifetime.start.p0(i64 8, ptr %7) #22
  %11 = load ptr, ptr %6, align 8, !tbaa !20
  %12 = load i64, ptr %5, align 8, !tbaa !22
  %13 = call i64 @rbimpl_atomic_size_exchange(ptr noundef %11, i64 noundef %12) #31
  store i64 %13, ptr %7, align 8, !tbaa !22
  %14 = load i64, ptr %7, align 8, !tbaa !22
  %15 = inttoptr i64 %14 to ptr
  call void @llvm.lifetime.end.p0(i64 8, ptr %7) #22
  call void @llvm.lifetime.end.p0(i64 8, ptr %6) #22
  call void @llvm.lifetime.end.p0(i64 8, ptr %5) #22
  ret ptr %15
}

; Function Attrs: noinline nounwind sspstrong uwtable
define internal void @check_reserved_signal_(ptr noundef %0, i64 noundef %1, i32 noundef %2) #25 {
  %4 = alloca ptr, align 8
  %5 = alloca i64, align 8
  %6 = alloca i32, align 4
  %7 = alloca ptr, align 8
  %8 = alloca i64, align 8
  %9 = alloca [4 x %struct.iovec], align 16
  %10 = alloca i32, align 4
  %11 = alloca %struct.iovec, align 8
  %12 = alloca %struct.iovec, align 8
  %13 = alloca %struct.iovec, align 8
  %14 = alloca %struct.iovec, align 8
  store ptr %0, ptr %4, align 8, !tbaa !18
  store i64 %1, ptr %5, align 8, !tbaa !22
  store i32 %2, ptr %6, align 4, !tbaa !7
  call void @llvm.lifetime.start.p0(i64 8, ptr %7) #22
  %15 = load ptr, ptr %4, align 8, !tbaa !18
  %16 = call ptr @rbimpl_atomic_ptr_exchange(ptr noundef @received_signal, ptr noundef %15) #31
  store ptr %16, ptr %7, align 8, !tbaa !18
  %17 = load ptr, ptr %7, align 8, !tbaa !18
  %18 = icmp ne ptr %17, null
  br i1 %18, label %19, label %54

19:                                               ; preds = %3
  call void @llvm.lifetime.start.p0(i64 8, ptr %8) #22
  call void @llvm.lifetime.start.p0(i64 64, ptr %9) #22
  call void @llvm.lifetime.start.p0(i64 4, ptr %10) #22
  store i32 0, ptr %10, align 4, !tbaa !7
  %20 = load i32, ptr %6, align 4, !tbaa !7
  %21 = call ptr @ruby_posix_signal(i32 noundef %20, ptr noundef null)
  %22 = load i32, ptr %10, align 4, !tbaa !7
  %23 = add i32 %22, 1
  store i32 %23, ptr %10, align 4, !tbaa !7
  %24 = sext i32 %22 to i64
  %25 = getelementptr [4 x %struct.iovec], ptr %9, i64 0, i64 %24
  %26 = getelementptr inbounds nuw %struct.iovec, ptr %11, i32 0, i32 0
  %27 = load ptr, ptr %4, align 8, !tbaa !18
  store ptr %27, ptr %26, align 8, !tbaa !114
  %28 = getelementptr inbounds nuw %struct.iovec, ptr %11, i32 0, i32 1
  %29 = load i64, ptr %5, align 8, !tbaa !22
  store i64 %29, ptr %28, align 8, !tbaa !116
  call void @llvm.memcpy.p0.p0.i64(ptr align 16 %25, ptr align 8 %11, i64 16, i1 false), !tbaa.struct !117
  %30 = load i32, ptr %10, align 4, !tbaa !7
  %31 = add i32 %30, 1
  store i32 %31, ptr %10, align 4, !tbaa !7
  %32 = sext i32 %30 to i64
  %33 = getelementptr [4 x %struct.iovec], ptr %9, i64 0, i64 %32
  %34 = getelementptr inbounds nuw %struct.iovec, ptr %12, i32 0, i32 0
  store ptr @check_reserved_signal_.msg1, ptr %34, align 8, !tbaa !114
  %35 = getelementptr inbounds nuw %struct.iovec, ptr %12, i32 0, i32 1
  store i64 13, ptr %35, align 8, !tbaa !116
  call void @llvm.memcpy.p0.p0.i64(ptr align 16 %33, ptr align 8 %12, i64 16, i1 false), !tbaa.struct !117
  %36 = load i32, ptr %10, align 4, !tbaa !7
  %37 = add i32 %36, 1
  store i32 %37, ptr %10, align 4, !tbaa !7
  %38 = sext i32 %36 to i64
  %39 = getelementptr [4 x %struct.iovec], ptr %9, i64 0, i64 %38
  %40 = getelementptr inbounds nuw %struct.iovec, ptr %13, i32 0, i32 0
  %41 = load ptr, ptr %7, align 8, !tbaa !18
  store ptr %41, ptr %40, align 8, !tbaa !114
  %42 = getelementptr inbounds nuw %struct.iovec, ptr %13, i32 0, i32 1
  %43 = load ptr, ptr %7, align 8, !tbaa !18
  %44 = call i64 @strlen(ptr noundef %43) #29
  store i64 %44, ptr %42, align 8, !tbaa !116
  call void @llvm.memcpy.p0.p0.i64(ptr align 16 %39, ptr align 8 %13, i64 16, i1 false), !tbaa.struct !117
  %45 = load i32, ptr %10, align 4, !tbaa !7
  %46 = add i32 %45, 1
  store i32 %46, ptr %10, align 4, !tbaa !7
  %47 = sext i32 %45 to i64
  %48 = getelementptr [4 x %struct.iovec], ptr %9, i64 0, i64 %47
  %49 = getelementptr inbounds nuw %struct.iovec, ptr %14, i32 0, i32 0
  store ptr @check_reserved_signal_.msg2, ptr %49, align 8, !tbaa !114
  %50 = getelementptr inbounds nuw %struct.iovec, ptr %14, i32 0, i32 1
  store i64 9, ptr %50, align 8, !tbaa !116
  call void @llvm.memcpy.p0.p0.i64(ptr align 16 %48, ptr align 8 %14, i64 16, i1 false), !tbaa.struct !117
  %51 = getelementptr inbounds [4 x %struct.iovec], ptr %9, i64 0, i64 0
  %52 = load i32, ptr %10, align 4, !tbaa !7
  %53 = call i64 @writev(i32 noundef 2, ptr noundef %51, i32 noundef %52)
  store i64 %53, ptr %8, align 8, !tbaa !22
  call void @ruby_abort() #27
  unreachable

54:                                               ; preds = %3
  %55 = call ptr @rb_current_vm()
  %56 = icmp ne ptr %55, null
  br i1 %56, label %57, label %59

57:                                               ; preds = %54
  %58 = call i64 @rb_gc_disable_no_rest()
  br label %59

59:                                               ; preds = %57, %54
  call void @llvm.lifetime.end.p0(i64 8, ptr %7) #22
  ret void
}