; Function Attrs: noinline nounwind sspstrong uwtable
define internal fastcc void @check_reserved_signal_(ptr noundef %0, i64 noundef range(i64 3, 5) %1, i32 noundef %2) unnamed_addr #20 {
  %4 = alloca [4 x %struct.iovec], align 16
  %5 = ptrtoint ptr %0 to i64
  %6 = atomicrmw volatile xchg ptr @received_signal, i64 %5 seq_cst, align 8
  %.not = icmp eq i64 %6, 0
  br i1 %.not, label %15, label %7

7:                                                ; preds = %3
  %8 = inttoptr i64 %6 to ptr
  call void @llvm.lifetime.start.p0(i64 64, ptr nonnull %4) #17
  %9 = tail call ptr @ruby_posix_signal(i32 noundef %2, ptr noundef null)
  store ptr %0, ptr %4, align 16, !tbaa !99
  %.sroa.26.0..sroa_idx = getelementptr inbounds nuw i8, ptr %4, i64 8
  store i64 %1, ptr %.sroa.26.0..sroa_idx, align 8, !tbaa !20
  %10 = getelementptr inbounds nuw i8, ptr %4, i64 16
  store ptr @check_reserved_signal_.msg1, ptr %10, align 16, !tbaa !99
  %.sroa.24.0..sroa_idx = getelementptr inbounds nuw i8, ptr %4, i64 24
  store i64 13, ptr %.sroa.24.0..sroa_idx, align 8, !tbaa !20
  %11 = getelementptr inbounds nuw i8, ptr %4, i64 32
  %12 = tail call i64 @strlen(ptr noundef nonnull dereferenceable(1) %8) #25
  store ptr %8, ptr %11, align 16, !tbaa !99
  %.sroa.22.0..sroa_idx = getelementptr inbounds nuw i8, ptr %4, i64 40
  store i64 %12, ptr %.sroa.22.0..sroa_idx, align 8, !tbaa !20
  %13 = getelementptr inbounds nuw i8, ptr %4, i64 48
  store ptr @check_reserved_signal_.msg2, ptr %13, align 16, !tbaa !99
  %.sroa.2.0..sroa_idx = getelementptr inbounds nuw i8, ptr %4, i64 56
  store i64 9, ptr %.sroa.2.0..sroa_idx, align 8, !tbaa !20
  %14 = call i64 @writev(i32 noundef 2, ptr noundef nonnull %4, i32 noundef 4) #17
  call fastcc void @ruby_abort() #29
  unreachable

15:                                               ; preds = %3
  %16 = load ptr, ptr @ruby_current_vm_ptr, align 8, !tbaa !14
  %.not17 = icmp eq ptr %16, null
  br i1 %.not17, label %19, label %17

17:                                               ; preds = %15
  %18 = tail call i64 @rb_gc_disable_no_rest() #17
  br label %19

19:                                               ; preds = %17, %15
  ret void
}